target datalayout = "e-m:e-p270:32:32-p271:32:32-p272:64:64-i64:64-i128:128-f80:128-n8:16:32:64-S128"
target triple = "x86_64-pc-linux-gnu"

%"class.nix::PosIdx" = type { i32 }
%"class.std::__cxx11::basic_string" = type { %"struct.std::__cxx11::basic_string<char>::_Alloc_hider", i64, %union.anon.23 }
%"struct.std::__cxx11::basic_string<char>::_Alloc_hider" = type { ptr }
%union.anon.23 = type { i64, [8 x i8] }
%"class.nix::EvalState" = type { %"class.std::enable_shared_from_this", %"class.nix::SymbolTable", %"class.nix::PosTable", %"class.nix::Symbol", %"class.nix::Symbol", %"class.nix::Symbol", %"class.nix::Symbol", %"class.nix::Symbol", %"class.nix::Symbol", %"class.nix::Symbol", %"class.nix::Symbol", %"class.nix::Symbol", %"class.nix::Symbol", %"class.nix::Symbol", %"class.nix::Symbol", %"class.nix::Symbol", %"class.nix::Symbol", %"class.nix::Symbol", %"class.nix::Symbol", %"class.nix::Symbol", %"class.nix::Symbol", %"class.nix::Symbol", %"class.nix::Symbol", %"class.nix::Symbol", %"class.nix::Symbol", %"class.nix::Symbol", %"class.nix::Symbol", %"class.nix::Symbol", %"class.nix::Symbol", %"class.nix::Symbol", %"class.nix::Symbol", %"class.nix::Symbol", %"class.nix::Symbol", %"class.nix::Symbol", %"class.nix::Symbol", %"class.nix::Symbol", %"class.nix::Symbol", %"class.nix::Symbol", %"class.nix::Symbol", %"class.nix::Symbol", %"struct.nix::Expr::AstSymbols", i8, %"class.nix::Bindings", %"struct.nix::Value", %"class.nix::ref", %"class.nix::ref.16", %"class.nix::ref.16", %"struct.nix::SourcePath", %"struct.nix::SourcePath", %"class.nix::ref.24", %"class.nix::ref.24", %"class.std::shared_ptr.28", ptr, i8, i8, i32, %"class.std::__cxx11::list", %"class.std::map", %"class.std::map.38", %"class.std::map.46", %"class.std::map.48", %"struct.nix::SearchPath", %"class.std::map.57", %"class.std::shared_ptr.65", %"class.std::shared_ptr.68", %"class.std::shared_ptr.68", ptr, %"class.std::shared_ptr.71", %"class.std::vector.74", i32, i64, i64, i64, i64, i64, i64, i64, i64, i64, i64, i64, i64, i64, i64, i8, %"class.std::map.79", %"class.std::map.84", %"class.std::map.92" }
%"class.std::enable_shared_from_this" = type { %"class.std::weak_ptr" }
%"class.std::weak_ptr" = type { %"class.std::__weak_ptr" }
%"class.std::__weak_ptr" = type { ptr, %"class.std::__weak_count" }
%"class.std::__weak_count" = type { ptr }
%"class.nix::SymbolTable" = type { %"class.std::unordered_map", %"class.nix::ChunkedVector" }
%"class.std::unordered_map" = type { %"class.std::_Hashtable" }
%"class.std::_Hashtable" = type { ptr, i64, %"struct.std::__detail::_Hash_node_base", i64, %"struct.std::__detail::_Prime_rehash_policy", ptr }
%"struct.std::__detail::_Hash_node_base" = type { ptr }
%"struct.std::__detail::_Prime_rehash_policy" = type { float, i64 }
%"class.nix::ChunkedVector" = type { i32, %"class.std::vector" }
%"class.std::vector" = type { %"struct.std::_Vector_base" }
%"struct.std::_Vector_base" = type { %"struct.std::_Vector_base<std::vector<std::__cxx11::basic_string<char>>, std::allocator<std::vector<std::__cxx11::basic_string<char>>>>::_Vector_impl" }
%"struct.std::_Vector_base<std::vector<std::__cxx11::basic_string<char>>, std::allocator<std::vector<std::__cxx11::basic_string<char>>>>::_Vector_impl" = type { %"struct.std::_Vector_base<std::vector<std::__cxx11::basic_string<char>>, std::allocator<std::vector<std::__cxx11::basic_string<char>>>>::_Vector_impl_data" }
%"struct.std::_Vector_base<std::vector<std::__cxx11::basic_string<char>>, std::allocator<std::vector<std::__cxx11::basic_string<char>>>>::_Vector_impl_data" = type { ptr, ptr, ptr }
%"class.nix::PosTable" = type { %"class.std::vector.5", %"class.nix::ChunkedVector.10" }
%"class.std::vector.5" = type { %"struct.std::_Vector_base.6" }
%"struct.std::_Vector_base.6" = type { %"struct.std::_Vector_base<nix::PosTable::Origin, std::allocator<nix::PosTable::Origin>>::_Vector_impl" }
%"struct.std::_Vector_base<nix::PosTable::Origin, std::allocator<nix::PosTable::Origin>>::_Vector_impl" = type { %"struct.std::_Vector_base<nix::PosTable::Origin, std::allocator<nix::PosTable::Origin>>::_Vector_impl_data" }
%"struct.std::_Vector_base<nix::PosTable::Origin, std::allocator<nix::PosTable::Origin>>::_Vector_impl_data" = type { ptr, ptr, ptr }
%"class.nix::ChunkedVector.10" = type { i32, %"class.std::vector.11" }
%"class.std::vector.11" = type { %"struct.std::_Vector_base.12" }
%"struct.std::_Vector_base.12" = type { %"struct.std::_Vector_base<std::vector<nix::PosTable::Offset>, std::allocator<std::vector<nix::PosTable::Offset>>>::_Vector_impl" }
%"struct.std::_Vector_base<std::vector<nix::PosTable::Offset>, std::allocator<std::vector<nix::PosTable::Offset>>>::_Vector_impl" = type { %"struct.std::_Vector_base<std::vector<nix::PosTable::Offset>, std::allocator<std::vector<nix::PosTable::Offset>>>::_Vector_impl_data" }
%"struct.std::_Vector_base<std::vector<nix::PosTable::Offset>, std::allocator<std::vector<nix::PosTable::Offset>>>::_Vector_impl_data" = type { ptr, ptr, ptr }
%"class.nix::Symbol" = type { i32 }
%"struct.nix::Expr::AstSymbols" = type { %"class.nix::Symbol", %"class.nix::Symbol", %"class.nix::Symbol", %"class.nix::Symbol", %"class.nix::Symbol", %"class.nix::Symbol", %"class.nix::Symbol", %"class.nix::Symbol" }
%"class.nix::Bindings" = type { %"class.nix::PosIdx", i32, i32, [0 x %"struct.nix::Attr"] }
%"struct.nix::Attr" = type { %"class.nix::Symbol", %"class.nix::PosIdx", ptr }
%"struct.nix::Value" = type { i32, %union.anon }
%union.anon = type { %"struct.nix::Value::StringWithContext" }
%"struct.nix::Value::StringWithContext" = type { ptr, ptr }
%"class.nix::ref" = type { %"class.std::shared_ptr" }
%"class.std::shared_ptr" = type { %"class.std::__shared_ptr" }
%"class.std::__shared_ptr" = type { ptr, %"class.std::__shared_count" }
%"class.std::__shared_count" = type { ptr }
%"class.nix::ref.16" = type { %"class.std::shared_ptr.17" }
%"class.std::shared_ptr.17" = type { %"class.std::__shared_ptr.18" }
%"class.std::__shared_ptr.18" = type { ptr, %"class.std::__shared_count" }
%"struct.nix::SourcePath" = type { %"class.nix::ref", %"class.nix::CanonPath" }
%"class.nix::CanonPath" = type { %"class.std::__cxx11::basic_string" }
%"class.nix::ref.24" = type { %"class.std::shared_ptr.25" }
%"class.std::shared_ptr.25" = type { %"class.std::__shared_ptr.26" }
%"class.std::__shared_ptr.26" = type { ptr, %"class.std::__shared_count" }
%"class.std::shared_ptr.28" = type { %"class.std::__shared_ptr.29" }
%"class.std::__shared_ptr.29" = type { ptr, %"class.std::__shared_count" }
%"class.std::__cxx11::list" = type { %"class.std::__cxx11::_List_base" }
%"class.std::__cxx11::_List_base" = type { %"struct.std::__cxx11::_List_base<nix::DebugTrace, std::allocator<nix::DebugTrace>>::_List_impl" }
%"struct.std::__cxx11::_List_base<nix::DebugTrace, std::allocator<nix::DebugTrace>>::_List_impl" = type { %"struct.std::__detail::_List_node_header" }
%"struct.std::__detail::_List_node_header" = type { %"struct.std::__detail::_List_node_base", i64 }
%"struct.std::__detail::_List_node_base" = type { ptr, ptr }
%"class.std::map" = type { %"class.std::_Rb_tree" }
%"class.std::_Rb_tree" = type { %"struct.std::_Rb_tree<const nix::Expr *, std::pair<const nix::Expr *const, const std::shared_ptr<const nix::StaticEnv>>, std::_Select1st<std::pair<const nix::Expr *const, const std::shared_ptr<const nix::StaticEnv>>>, std::less<const nix::Expr *>>::_Rb_tree_impl" }
%"struct.std::_Rb_tree<const nix::Expr *, std::pair<const nix::Expr *const, const std::shared_ptr<const nix::StaticEnv>>, std::_Select1st<std::pair<const nix::Expr *const, const std::shared_ptr<const nix::StaticEnv>>>, std::less<const nix::Expr *>>::_Rb_tree_impl" = type { %"struct.std::_Rb_tree_key_compare", %"struct.std::_Rb_tree_header" }
%"struct.std::_Rb_tree_key_compare" = type { %"struct.std::less" }
%"struct.std::less" = type { i8 }
%"struct.std::_Rb_tree_header" = type { %"struct.std::_Rb_tree_node_base", i64 }
%"struct.std::_Rb_tree_node_base" = type { i32, ptr, ptr, ptr }
%"class.std::map.38" = type { %"class.std::_Rb_tree.39" }
%"class.std::_Rb_tree.39" = type { %"struct.std::_Rb_tree<nix::SourcePath, std::pair<const nix::SourcePath, nix::StorePath>, std::_Select1st<std::pair<const nix::SourcePath, nix::StorePath>>, std::less<nix::SourcePath>>::_Rb_tree_impl" }
%"struct.std::_Rb_tree<nix::SourcePath, std::pair<const nix::SourcePath, nix::StorePath>, std::_Select1st<std::pair<const nix::SourcePath, nix::StorePath>>, std::less<nix::SourcePath>>::_Rb_tree_impl" = type { %"struct.std::_Rb_tree_key_compare.43", %"struct.std::_Rb_tree_header" }
%"struct.std::_Rb_tree_key_compare.43" = type { %"struct.std::less.44" }
%"struct.std::less.44" = type { i8 }
%"class.std::map.46" = type { %"class.std::_Rb_tree.47" }
%"class.std::_Rb_tree.47" = type { %"struct.std::_Rb_tree<nix::SourcePath, std::pair<const nix::SourcePath, nix::Expr *>, std::_Select1st<std::pair<const nix::SourcePath, nix::Expr *>>, std::less<nix::SourcePath>, traceable_allocator<std::pair<const nix::SourcePath, nix::Expr *>>>::_Rb_tree_impl" }
%"struct.std::_Rb_tree<nix::SourcePath, std::pair<const nix::SourcePath, nix::Expr *>, std::_Select1st<std::pair<const nix::SourcePath, nix::Expr *>>, std::less<nix::SourcePath>, traceable_allocator<std::pair<const nix::SourcePath, nix::Expr *>>>::_Rb_tree_impl" = type { %"struct.std::_Rb_tree_key_compare.43", %"struct.std::_Rb_tree_header" }
%"class.std::map.48" = type { %"class.std::_Rb_tree.49" }
%"class.std::_Rb_tree.49" = type { %"struct.std::_Rb_tree<nix::SourcePath, std::pair<const nix::SourcePath, nix::Value>, std::_Select1st<std::pair<const nix::SourcePath, nix::Value>>, std::less<nix::SourcePath>, traceable_allocator<std::pair<const nix::SourcePath, nix::Value>>>::_Rb_tree_impl" }
%"struct.std::_Rb_tree<nix::SourcePath, std::pair<const nix::SourcePath, nix::Value>, std::_Select1st<std::pair<const nix::SourcePath, nix::Value>>, std::less<nix::SourcePath>, traceable_allocator<std::pair<const nix::SourcePath, nix::Value>>>::_Rb_tree_impl" = type { %"struct.std::_Rb_tree_key_compare.43", %"struct.std::_Rb_tree_header" }
%"struct.nix::SearchPath" = type { %"class.std::__cxx11::list.52" }
%"class.std::__cxx11::list.52" = type { %"class.std::__cxx11::_List_base.53" }
%"class.std::__cxx11::_List_base.53" = type { %"struct.std::__cxx11::_List_base<nix::SearchPath::Elem, std::allocator<nix::SearchPath::Elem>>::_List_impl" }
%"struct.std::__cxx11::_List_base<nix::SearchPath::Elem, std::allocator<nix::SearchPath::Elem>>::_List_impl" = type { %"struct.std::__detail::_List_node_header" }
%"class.std::map.57" = type { %"class.std::_Rb_tree.58" }
%"class.std::_Rb_tree.58" = type { %"struct.std::_Rb_tree<std::__cxx11::basic_string<char>, std::pair<const std::__cxx11::basic_string<char>, std::optional<std::__cxx11::basic_string<char>>>, std::_Select1st<std::pair<const std::__cxx11::basic_string<char>, std::optional<std::__cxx11::basic_string<char>>>>, std::less<std::__cxx11::basic_string<char>>>::_Rb_tree_impl" }
%"struct.std::_Rb_tree<std::__cxx11::basic_string<char>, std::pair<const std::__cxx11::basic_string<char>, std::optional<std::__cxx11::basic_string<char>>>, std::_Select1st<std::pair<const std::__cxx11::basic_string<char>, std::optional<std::__cxx11::basic_string<char>>>>, std::less<std::__cxx11::basic_string<char>>>::_Rb_tree_impl" = type { %"struct.std::_Rb_tree_key_compare.62", %"struct.std::_Rb_tree_header" }
%"struct.std::_Rb_tree_key_compare.62" = type { %"struct.std::less.63" }
%"struct.std::less.63" = type { i8 }
%"class.std::shared_ptr.65" = type { %"class.std::__shared_ptr.66" }
%"class.std::__shared_ptr.66" = type { ptr, %"class.std::__shared_count" }
%"class.std::shared_ptr.68" = type { %"class.std::__shared_ptr.69" }
%"class.std::__shared_ptr.69" = type { ptr, %"class.std::__shared_count" }
%"class.std::shared_ptr.71" = type { %"class.std::__shared_ptr.72" }
%"class.std::__shared_ptr.72" = type { ptr, %"class.std::__shared_count" }
%"class.std::vector.74" = type { %"struct.std::_Vector_base.75" }
%"struct.std::_Vector_base.75" = type { %"struct.std::_Vector_base<std::pair<std::__cxx11::basic_string<char>, nix::Constant>, std::allocator<std::pair<std::__cxx11::basic_string<char>, nix::Constant>>>::_Vector_impl" }
%"struct.std::_Vector_base<std::pair<std::__cxx11::basic_string<char>, nix::Constant>, std::allocator<std::pair<std::__cxx11::basic_string<char>, nix::Constant>>>::_Vector_impl" = type { %"struct.std::_Vector_base<std::pair<std::__cxx11::basic_string<char>, nix::Constant>, std::allocator<std::pair<std::__cxx11::basic_string<char>, nix::Constant>>>::_Vector_impl_data" }
%"struct.std::_Vector_base<std::pair<std::__cxx11::basic_string<char>, nix::Constant>, std::allocator<std::pair<std::__cxx11::basic_string<char>, nix::Constant>>>::_Vector_impl_data" = type { ptr, ptr, ptr }
%"class.std::map.79" = type { %"class.std::_Rb_tree.80" }
%"class.std::_Rb_tree.80" = type { %"struct.std::_Rb_tree<std::__cxx11::basic_string<char>, std::pair<const std::__cxx11::basic_string<char>, unsigned long>, std::_Select1st<std::pair<const std::__cxx11::basic_string<char>, unsigned long>>, std::less<std::__cxx11::basic_string<char>>>::_Rb_tree_impl" }
%"struct.std::_Rb_tree<std::__cxx11::basic_string<char>, std::pair<const std::__cxx11::basic_string<char>, unsigned long>, std::_Select1st<std::pair<const std::__cxx11::basic_string<char>, unsigned long>>, std::less<std::__cxx11::basic_string<char>>>::_Rb_tree_impl" = type { %"struct.std::_Rb_tree_key_compare.62", %"struct.std::_Rb_tree_header" }
%"class.std::map.84" = type { %"class.std::_Rb_tree.85" }
%"class.std::_Rb_tree.85" = type { %"struct.std::_Rb_tree<nix::ExprLambda *, std::pair<nix::ExprLambda *const, unsigned long>, std::_Select1st<std::pair<nix::ExprLambda *const, unsigned long>>, std::less<nix::ExprLambda *>>::_Rb_tree_impl" }
%"struct.std::_Rb_tree<nix::ExprLambda *, std::pair<nix::ExprLambda *const, unsigned long>, std::_Select1st<std::pair<nix::ExprLambda *const, unsigned long>>, std::less<nix::ExprLambda *>>::_Rb_tree_impl" = type { %"struct.std::_Rb_tree_key_compare.89", %"struct.std::_Rb_tree_header" }
%"struct.std::_Rb_tree_key_compare.89" = type { %"struct.std::less.90" }
%"struct.std::less.90" = type { i8 }
%"class.std::map.92" = type { %"class.std::_Rb_tree.93" }
%"class.std::_Rb_tree.93" = type { %"struct.std::_Rb_tree<nix::PosIdx, std::pair<const nix::PosIdx, unsigned long>, std::_Select1st<std::pair<const nix::PosIdx, unsigned long>>, std::less<nix::PosIdx>>::_Rb_tree_impl" }
%"struct.std::_Rb_tree<nix::PosIdx, std::pair<const nix::PosIdx, unsigned long>, std::_Select1st<std::pair<const nix::PosIdx, unsigned long>>, std::less<nix::PosIdx>>::_Rb_tree_impl" = type { %"struct.std::_Rb_tree_key_compare.97", %"struct.std::_Rb_tree_header" }
%"struct.std::_Rb_tree_key_compare.97" = type { %"struct.std::less.98" }
%"struct.std::less.98" = type { i8 }

@_ZN3nix5noPosE = linkonce_odr global %"class.nix::PosIdx" zeroinitializer, comdat, align 4
@_ZTVSt9exception = external unnamed_addr constant { [5 x ptr] }, align 8
@_ZTISt9bad_alloc = external constant ptr
@_ZTVSt9bad_alloc = external unnamed_addr constant { [5 x ptr] }, align 8

; Function Attrs: mustprogress nounwind uwtable
define linkonce_odr noundef ptr @_ZNKSt12__shared_ptrIPvLN9__gnu_cxx12_Lock_policyE2EE3getEv(ptr noundef nonnull align 8 dereferenceable(16) %0) #2 comdat align 2 {
  %2 = alloca ptr, align 8
  store ptr %0, ptr %2, align 8
  %3 = load ptr, ptr %2, align 8
  %4 = getelementptr inbounds %"class.std::__shared_ptr.69", ptr %3, i32 0, i32 0
  %5 = load ptr, ptr %4, align 8
  ret ptr %5
}

; Function Attrs: mustprogress nounwind uwtable
define linkonce_odr void @_ZNSt9exceptionC2Ev(ptr noundef nonnull align 8 dereferenceable(8) %0) unnamed_addr #2 comdat align 2 {
  %2 = alloca ptr, align 8
  store ptr %0, ptr %2, align 8
  %3 = load ptr, ptr %2, align 8
  store ptr getelementptr inbounds ({ [5 x ptr] }, ptr @_ZTVSt9exception, i32 0, i32 0, i32 2), ptr %3, align 8
  ret void
}

; Function Attrs: mustprogress nounwind uwtable
define linkonce_odr noundef ptr @_ZNKSt19__shared_ptr_accessIPvLN9__gnu_cxx12_Lock_policyE2ELb0ELb0EE6_M_getEv(ptr noundef nonnull align 1 dereferenceable(1) %0) #2 comdat align 2 {
  %2 = alloca ptr, align 8
  store ptr %0, ptr %2, align 8
  %3 = load ptr, ptr %2, align 8
  %4 = call noundef ptr @_ZNKSt12__shared_ptrIPvLN9__gnu_cxx12_Lock_policyE2EE3getEv(ptr noundef nonnull align 8 dereferenceable(16) %3) #1
  ret ptr %4
}

; Function Attrs: mustprogress nounwind uwtable
define linkonce_odr void @_ZN3nix8Bindings9push_backERKNS_4AttrE(ptr noundef nonnull align 8 dereferenceable(16) %0, ptr noundef nonnull align 8 dereferenceable(16) %1) #2 comdat align 2 {
  %3 = alloca ptr, align 8
  %4 = alloca ptr, align 8
  store ptr %0, ptr %3, align 8
  store ptr %1, ptr %4, align 8
  %5 = load ptr, ptr %3, align 8
  %6 = load ptr, ptr %4, align 8
  %7 = getelementptr inbounds %"class.nix::Bindings", ptr %5, i32 0, i32 3
  %8 = getelementptr inbounds %"class.nix::Bindings", ptr %5, i32 0, i32 1
  %9 = load i32, ptr %8, align 4
  %10 = add i32 %9, 1
  store i32 %10, ptr %8, align 4
  %11 = zext i32 %9 to i64
  %12 = getelementptr inbounds [0 x %"struct.nix::Attr"], ptr %7, i64 0, i64 %11
  call void @llvm.memcpy.p0.p0.i64(ptr align 8 %12, ptr align 8 %6, i64 16, i1 false)
  ret void
}

; Function Attrs: mustprogress nounwind uwtable
define linkonce_odr void @_ZN3nix4AttrC2ENS_6SymbolEPNS_5ValueENS_6PosIdxE(ptr noundef nonnull align 8 dereferenceable(16) %0, i32 %1, ptr noundef %2, i32 %3) unnamed_addr #2 comdat align 2 {
  %5 = alloca %"class.nix::Symbol", align 4
  %6 = alloca %"class.nix::PosIdx", align 4
  %7 = alloca ptr, align 8
  %8 = alloca ptr, align 8
  %9 = getelementptr inbounds %"class.nix::Symbol", ptr %5, i32 0, i32 0
  store i32 %1, ptr %9, align 4
  %10 = getelementptr inbounds %"class.nix::PosIdx", ptr %6, i32 0, i32 0
  store i32 %3, ptr %10, align 4
  store ptr %0, ptr %7, align 8
  store ptr %2, ptr %8, align 8
  %11 = load ptr, ptr %7, align 8
  %12 = getelementptr inbounds %"struct.nix::Attr", ptr %11, i32 0, i32 0
  call void @llvm.memcpy.p0.p0.i64(ptr align 8 %12, ptr align 4 %5, i64 4, i1 false)
  %13 = getelementptr inbounds %"struct.nix::Attr", ptr %11, i32 0, i32 1
  call void @llvm.memcpy.p0.p0.i64(ptr align 4 %13, ptr align 4 %6, i64 4, i1 false)
  %14 = getelementptr inbounds %"struct.nix::Attr", ptr %11, i32 0, i32 2
  %15 = load ptr, ptr %8, align 8
  store ptr %15, ptr %14, align 8
  ret void
}

; Function Attrs: mustprogress nounwind uwtable
define linkonce_odr void @_ZNSt9bad_allocC2Ev(ptr noundef nonnull align 8 dereferenceable(8) %0) unnamed_addr #2 comdat align 2 {
  %2 = alloca ptr, align 8
  store ptr %0, ptr %2, align 8
  %3 = load ptr, ptr %2, align 8
  call void @_ZNSt9exceptionC2Ev(ptr noundef nonnull align 8 dereferenceable(8) %3) #1
  store ptr getelementptr inbounds ({ [5 x ptr] }, ptr @_ZTVSt9bad_alloc, i32 0, i32 0, i32 2), ptr %3, align 8
  ret void
}

; Function Attrs: mustprogress nounwind uwtable
define linkonce_odr noundef nonnull align 8 dereferenceable(8) ptr @_ZNKSt19__shared_ptr_accessIPvLN9__gnu_cxx12_Lock_policyE2ELb0ELb0EEdeEv(ptr noundef nonnull align 1 dereferenceable(1) %0) #2 comdat align 2 {
  %2 = alloca ptr, align 8
  store ptr %0, ptr %2, align 8
  %3 = load ptr, ptr %2, align 8
  br label %4

4:                                                ; preds = %1
  br label %5

5:                                                ; preds = %4
  br label %6

6:                                                ; preds = %5
  %7 = call noundef ptr @_ZNKSt19__shared_ptr_accessIPvLN9__gnu_cxx12_Lock_policyE2ELb0ELb0EE6_M_getEv(ptr noundef nonnull align 1 dereferenceable(1) %3) #1
  ret ptr %7
}

; Function Attrs: mustprogress uwtable
define noundef ptr @_ZN3nix9EvalState9allocAttrERNS_5ValueENS_6SymbolE(ptr noundef nonnull align 8 dereferenceable(1248) %0, ptr noundef nonnull align 8 dereferenceable(24) %1, i32 %2) #5 align 2 {
  %4 = alloca ptr, align 8
  %5 = alloca ptr, align 8
  %6 = alloca %"class.nix::Symbol", align 4
  %7 = alloca ptr, align 8
  %8 = alloca ptr, align 8
  %9 = alloca ptr, align 8
  %10 = alloca %"struct.nix::Attr", align 8
  %11 = alloca %"class.nix::Symbol", align 4
  %12 = alloca %"class.nix::PosIdx", align 4
  %13 = getelementptr inbounds %"class.nix::Symbol", ptr %6, i32 0, i32 0
  store i32 %2, ptr %13, align 4
  store ptr %0, ptr %7, align 8
  store ptr %1, ptr %8, align 8
  %14 = load ptr, ptr %7, align 8
  store ptr %14, ptr %4, align 8
  %15 = load ptr, ptr %4, align 8
  %16 = getelementptr inbounds %"class.nix::EvalState", ptr %15, i32 0, i32 64
  %17 = call noundef nonnull align 8 dereferenceable(8) ptr @_ZNKSt19__shared_ptr_accessIPvLN9__gnu_cxx12_Lock_policyE2ELb0ELb0EEdeEv(ptr noundef nonnull align 1 dereferenceable(1) %16) #1
  %18 = load ptr, ptr %17, align 8
  %19 = icmp ne ptr %18, null
  br i1 %19, label %31, label %20

20:                                               ; preds = %3
  %21 = call noalias ptr @GC_malloc_many(i64 noundef 24)
  %22 = getelementptr inbounds %"class.nix::EvalState", ptr %15, i32 0, i32 64
  %23 = call noundef nonnull align 8 dereferenceable(8) ptr @_ZNKSt19__shared_ptr_accessIPvLN9__gnu_cxx12_Lock_policyE2ELb0ELb0EEdeEv(ptr noundef nonnull align 1 dereferenceable(1) %22) #1
  store ptr %21, ptr %23, align 8
  %24 = getelementptr inbounds %"class.nix::EvalState", ptr %15, i32 0, i32 64
  %25 = call noundef nonnull align 8 dereferenceable(8) ptr @_ZNKSt19__shared_ptr_accessIPvLN9__gnu_cxx12_Lock_policyE2ELb0ELb0EEdeEv(ptr noundef nonnull align 1 dereferenceable(1) %24) #1
  %26 = load ptr, ptr %25, align 8
  %27 = icmp ne ptr %26, null
  br i1 %27, label %30, label %28

28:                                               ; preds = %20
  %29 = call ptr @__cxa_allocate_exception(i64 8) #1
  call void @_ZNSt9bad_allocC2Ev(ptr noundef nonnull align 8 dereferenceable(8) %29) #1
  call void @__cxa_throw(ptr %29, ptr @_ZTISt9bad_alloc, ptr @_ZNSt9bad_allocD1Ev) #18
  unreachable

30:                                               ; preds = %20
  br label %31

31:                                               ; preds = %30, %3
  %32 = getelementptr inbounds %"class.nix::EvalState", ptr %15, i32 0, i32 64
  %33 = call noundef nonnull align 8 dereferenceable(8) ptr @_ZNKSt19__shared_ptr_accessIPvLN9__gnu_cxx12_Lock_policyE2ELb0ELb0EEdeEv(ptr noundef nonnull align 1 dereferenceable(1) %32) #1
  %34 = load ptr, ptr %33, align 8
  store ptr %34, ptr %5, align 8
  %35 = load ptr, ptr %5, align 8
  %36 = load ptr, ptr %35, align 8
  %37 = getelementptr inbounds %"class.nix::EvalState", ptr %15, i32 0, i32 64
  %38 = call noundef nonnull align 8 dereferenceable(8) ptr @_ZNKSt19__shared_ptr_accessIPvLN9__gnu_cxx12_Lock_policyE2ELb0ELb0EEdeEv(ptr noundef nonnull align 1 dereferenceable(1) %37) #1
  store ptr %36, ptr %38, align 8
  %39 = load ptr, ptr %5, align 8
  store ptr null, ptr %39, align 8
  %40 = getelementptr inbounds %"class.nix::EvalState", ptr %15, i32 0, i32 73
  %41 = load i64, ptr %40, align 8
  %42 = add i64 %41, 1
  store i64 %42, ptr %40, align 8
  %43 = load ptr, ptr %5, align 8
  store ptr %43, ptr %9, align 8
  %44 = load ptr, ptr %8, align 8
  %45 = getelementptr inbounds %"struct.nix::Value", ptr %44, i32 0, i32 1
  %46 = load ptr, ptr %45, align 8
  call void @llvm.memcpy.p0.p0.i64(ptr align 4 %11, ptr align 4 %6, i64 4, i1 false)
  %47 = load ptr, ptr %9, align 8
  call void @llvm.memcpy.p0.p0.i64(ptr align 4 %12, ptr align 4 @_ZN3nix5noPosE, i64 4, i1 false)
  %48 = getelementptr inbounds %"class.nix::Symbol", ptr %11, i32 0, i32 0
  %49 = load i32, ptr %48, align 4
  %50 = getelementptr inbounds %"class.nix::PosIdx", ptr %12, i32 0, i32 0
  %51 = load i32, ptr %50, align 4
  call void @_ZN3nix4AttrC2ENS_6SymbolEPNS_5ValueENS_6PosIdxE(ptr noundef nonnull align 8 dereferenceable(16) %10, i32 %49, ptr noundef %47, i32 %51)
  call void @_ZN3nix8Bindings9push_backERKNS_4AttrE(ptr noundef nonnull align 8 dereferenceable(16) %46, ptr noundef nonnull align 8 dereferenceable(16) %10)
  %52 = load ptr, ptr %9, align 8
  ret ptr %52
}