; Function Attrs: mustprogress uwtable
define noundef nonnull ptr @_ZN3nix9EvalState9allocAttrERNS_5ValueENS_6SymbolE(ptr nocapture noundef nonnull align 8 dereferenceable(1248) %0, ptr nocapture noundef nonnull readonly align 8 dereferenceable(24) %1, i32 %2) local_unnamed_addr #4 align 2 {
  %4 = getelementptr inbounds i8, ptr %0, i64 896
  %5 = load ptr, ptr %4, align 8
  %6 = load ptr, ptr %5, align 8
  %.not = icmp eq ptr %6, null
  br i1 %.not, label %7, label %14

7:                                                ; preds = %3
  %8 = tail call noalias ptr @GC_malloc_many(i64 noundef 24)
  %9 = load ptr, ptr %4, align 8
  store ptr %8, ptr %9, align 8
  %10 = load ptr, ptr %4, align 8
  %11 = load ptr, ptr %10, align 8
  %.not10 = icmp eq ptr %11, null
  br i1 %.not10, label %12, label %14

12:                                               ; preds = %7
  %13 = tail call ptr @__cxa_allocate_exception(i64 8) #25
  store ptr getelementptr inbounds ({ [5 x ptr] }, ptr @_ZTVSt9bad_alloc, i64 0, i32 0, i64 2), ptr %13, align 8
  tail call void @__cxa_throw(ptr nonnull %13, ptr nonnull @_ZTISt9bad_alloc, ptr nonnull @_ZNSt9bad_allocD1Ev) #26
  unreachable

14:                                               ; preds = %7, %3
  %15 = phi ptr [ %11, %7 ], [ %6, %3 ]
  %16 = phi ptr [ %10, %7 ], [ %5, %3 ]
  %17 = load ptr, ptr %15, align 8
  store ptr %17, ptr %16, align 8
  store ptr null, ptr %15, align 8
  %18 = getelementptr inbounds i8, ptr %0, i64 1008
  %19 = load i64, ptr %18, align 8
  %20 = add i64 %19, 1
  store i64 %20, ptr %18, align 8
  %21 = getelementptr inbounds i8, ptr %1, i64 8
  %22 = load ptr, ptr %21, align 8
  %.sroa.0.0.copyload = load i32, ptr @_ZN3nix5noPosE, align 4
  %23 = getelementptr inbounds i8, ptr %22, i64 16
  %24 = getelementptr inbounds i8, ptr %22, i64 4
  %25 = load i32, ptr %24, align 4
  %26 = add i32 %25, 1
  store i32 %26, ptr %24, align 4
  %27 = zext i32 %25 to i64
  %28 = getelementptr inbounds [0 x %"struct.nix::Attr"], ptr %23, i64 0, i64 %27
  store i32 %2, ptr %28, align 8
  %.sroa.2.0..sroa_idx = getelementptr inbounds i8, ptr %28, i64 4
  store i32 %.sroa.0.0.copyload, ptr %.sroa.2.0..sroa_idx, align 4
  %.sroa.3.0..sroa_idx = getelementptr inbounds i8, ptr %28, i64 8
  store ptr %15, ptr %.sroa.3.0..sroa_idx, align 8
  ret ptr %15
}